target datalayout = "e-m:e-p270:32:32-p271:32:32-p272:64:64-i64:64-i128:128-f80:128-n8:16:32:64-S128"
target triple = "x86_64-pc-linux-gnu"

; Function Attrs: nounwind uwtable
define i32 @BIO_vsnprintf(ptr noundef %0, i64 noundef %1, ptr noundef %2, ptr noundef %3) #0 {
  %5 = alloca i32, align 4
  %6 = alloca ptr, align 8
  %7 = alloca i64, align 8
  %8 = alloca ptr, align 8
  %9 = alloca ptr, align 8
  %10 = alloca i64, align 8
  %11 = alloca i32, align 4
  %12 = alloca i32, align 4
  store ptr %0, ptr %6, align 8, !tbaa !8
  store i64 %1, ptr %7, align 8, !tbaa !14
  store ptr %2, ptr %8, align 8, !tbaa !8
  store ptr %3, ptr %9, align 8, !tbaa !12
  call void @llvm.lifetime.start.p0(i64 8, ptr %10) #7
  call void @llvm.lifetime.start.p0(i64 4, ptr %11) #7
  %13 = load ptr, ptr %8, align 8, !tbaa !8
  %14 = load ptr, ptr %9, align 8, !tbaa !12
  %15 = call i32 @_dopr(ptr noundef %6, ptr noundef null, ptr noundef %7, ptr noundef %10, ptr noundef %11, ptr noundef %13, ptr noundef %14)
  %16 = icmp ne i32 %15, 0
  br i1 %16, label %18, label %17

17:                                               ; preds = %4
  store i32 -1, ptr %5, align 4
  store i32 1, ptr %12, align 4
  br label %31

18:                                               ; preds = %4
  %19 = load i32, ptr %11, align 4, !tbaa !10
  %20 = icmp ne i32 %19, 0
  br i1 %20, label %21, label %22

21:                                               ; preds = %18
  store i32 -1, ptr %5, align 4
  store i32 1, ptr %12, align 4
  br label %31

22:                                               ; preds = %18
  %23 = load i64, ptr %10, align 8, !tbaa !14
  %24 = icmp ule i64 %23, 2147483647
  br i1 %24, label %25, label %28

25:                                               ; preds = %22
  %26 = load i64, ptr %10, align 8, !tbaa !14
  %27 = trunc i64 %26 to i32
  br label %29

28:                                               ; preds = %22
  br label %29

29:                                               ; preds = %28, %25
  %30 = phi i32 [ %27, %25 ], [ -1, %28 ]
  store i32 %30, ptr %5, align 4
  store i32 1, ptr %12, align 4
  br label %31

31:                                               ; preds = %29, %21, %17
  call void @llvm.lifetime.end.p0(i64 4, ptr %11) #7
  call void @llvm.lifetime.end.p0(i64 8, ptr %10) #7
  %32 = load i32, ptr %5, align 4
  ret i32 %32
}