; Function Attrs: nounwind uwtable
define i32 @BIO_vsnprintf(ptr noundef %0, i64 noundef %1, ptr noundef readonly captures(none) %2, ptr noundef %3) local_unnamed_addr #0 {
  %5 = alloca ptr, align 8
  %6 = alloca i64, align 8
  %7 = alloca i64, align 8
  %8 = alloca i32, align 4
  store ptr %0, ptr %5, align 8, !tbaa !3
  store i64 %1, ptr %6, align 8, !tbaa !8
  call void @llvm.lifetime.start.p0(i64 8, ptr nonnull %7) #7
  call void @llvm.lifetime.start.p0(i64 4, ptr nonnull %8) #7
  %9 = call fastcc i32 @_dopr(ptr noundef %5, ptr noundef null, ptr noundef %6, ptr noundef %7, ptr noundef %8, ptr noundef %2, ptr noundef %3)
  %.not = icmp ne i32 %9, 0
  %10 = load i32, ptr %8, align 4
  %.not2 = icmp eq i32 %10, 0
  %or.cond = select i1 %.not, i1 %.not2, i1 false
  %11 = load i64, ptr %7, align 8
  %12 = icmp ult i64 %11, 2147483648
  %13 = trunc i64 %11 to i32
  %14 = select i1 %or.cond, i1 %12, i1 false
  %.0 = select i1 %14, i32 %13, i32 -1
  call void @llvm.lifetime.end.p0(i64 4, ptr nonnull %8) #7
  call void @llvm.lifetime.end.p0(i64 8, ptr nonnull %7) #7
  ret i32 %.0
}